target datalayout = "e-m:e-p270:32:32-p271:32:32-p272:64:64-i64:64-i128:128-f80:128-n8:16:32:64-S128"
target triple = "x86_64-pc-linux-gnu"

%struct.stat = type { i64, i64, i64, i32, i32, i32, i32, i64, i64, i64, i64, %struct.timespec, %struct.timespec, %struct.timespec, [3 x i64] }
%struct.timespec = type { i64, i64 }
%struct.dirent = type { i64, i64, i16, i8, [256 x i8] }

@.str.2 = private unnamed_addr constant [6 x i8] c"%s/%s\00", align 1

; Function Attrs: nounwind uwtable
define hidden i32 @mbedtls_x509_crt_parse_file(ptr noundef %0, ptr noundef %1) #0 {
  %3 = alloca i32, align 4
  %4 = alloca ptr, align 8
  %5 = alloca ptr, align 8
  %6 = alloca i32, align 4
  %7 = alloca i64, align 8
  %8 = alloca ptr, align 8
  %9 = alloca i32, align 4
  store ptr %0, ptr %4, align 8, !tbaa !3
  store ptr %1, ptr %5, align 8, !tbaa !8
  call void @llvm.lifetime.start.p0(i64 4, ptr %6) #10
  store i32 -110, ptr %6, align 4, !tbaa !12
  call void @llvm.lifetime.start.p0(i64 8, ptr %7) #10
  call void @llvm.lifetime.start.p0(i64 8, ptr %8) #10
  %10 = load ptr, ptr %5, align 8, !tbaa !8
  %11 = call i32 @mbedtls_pk_load_file(ptr noundef %10, ptr noundef %8, ptr noundef %7)
  store i32 %11, ptr %6, align 4, !tbaa !12
  %12 = icmp ne i32 %11, 0
  br i1 %12, label %13, label %15

13:                                               ; preds = %2
  %14 = load i32, ptr %6, align 4, !tbaa !12
  store i32 %14, ptr %3, align 4
  store i32 1, ptr %9, align 4
  br label %23

15:                                               ; preds = %2
  %16 = load ptr, ptr %4, align 8, !tbaa !3
  %17 = load ptr, ptr %8, align 8, !tbaa !8
  %18 = load i64, ptr %7, align 8, !tbaa !10
  %19 = call i32 @mbedtls_x509_crt_parse(ptr noundef %16, ptr noundef %17, i64 noundef %18)
  store i32 %19, ptr %6, align 4, !tbaa !12
  %20 = load ptr, ptr %8, align 8, !tbaa !8
  %21 = load i64, ptr %7, align 8, !tbaa !10
  call void @mbedtls_zeroize_and_free(ptr noundef %20, i64 noundef %21)
  %22 = load i32, ptr %6, align 4, !tbaa !12
  store i32 %22, ptr %3, align 4
  store i32 1, ptr %9, align 4
  br label %23

23:                                               ; preds = %15, %13
  call void @llvm.lifetime.end.p0(i64 8, ptr %8) #10
  call void @llvm.lifetime.end.p0(i64 8, ptr %7) #10
  call void @llvm.lifetime.end.p0(i64 4, ptr %6) #10
  %24 = load i32, ptr %3, align 4
  ret i32 %24
}

; Function Attrs: nounwind uwtable
define hidden i32 @mbedtls_x509_crt_parse_path(ptr noundef %0, ptr noundef %1) #0 {
  %3 = alloca i32, align 4
  %4 = alloca ptr, align 8
  %5 = alloca ptr, align 8
  %6 = alloca i32, align 4
  %7 = alloca i32, align 4
  %8 = alloca i32, align 4
  %9 = alloca %struct.stat, align 8
  %10 = alloca ptr, align 8
  %11 = alloca [512 x i8], align 16
  %12 = alloca ptr, align 8
  %13 = alloca i32, align 4
  store ptr %0, ptr %4, align 8, !tbaa !3
  store ptr %1, ptr %5, align 8, !tbaa !8
  call void @llvm.lifetime.start.p0(i64 4, ptr %6) #10
  store i32 0, ptr %6, align 4, !tbaa !12
  call void @llvm.lifetime.start.p0(i64 4, ptr %7) #10
  call void @llvm.lifetime.start.p0(i64 4, ptr %8) #10
  call void @llvm.lifetime.start.p0(i64 144, ptr %9) #10
  call void @llvm.lifetime.start.p0(i64 8, ptr %10) #10
  call void @llvm.lifetime.start.p0(i64 512, ptr %11) #10
  call void @llvm.lifetime.start.p0(i64 8, ptr %12) #10
  %14 = load ptr, ptr %5, align 8, !tbaa !8
  %15 = call ptr @opendir(ptr noundef %14)
  store ptr %15, ptr %12, align 8, !tbaa !34
  %16 = load ptr, ptr %12, align 8, !tbaa !34
  %17 = icmp eq ptr %16, null
  br i1 %17, label %18, label %19

18:                                               ; preds = %2
  store i32 -10496, ptr %3, align 4
  store i32 1, ptr %13, align 4
  br label %74

19:                                               ; preds = %2
  call void @llvm.memset.p0.i64(ptr align 8 %9, i8 0, i64 144, i1 false)
  br label %20

20:                                               ; preds = %68, %54, %46, %19
  %21 = load ptr, ptr %12, align 8, !tbaa !34
  %22 = call ptr @readdir(ptr noundef %21)
  store ptr %22, ptr %10, align 8, !tbaa !36
  %23 = icmp ne ptr %22, null
  br i1 %23, label %24, label %69

24:                                               ; preds = %20
  %25 = getelementptr inbounds [512 x i8], ptr %11, i64 0, i64 0
  %26 = load ptr, ptr %5, align 8, !tbaa !8
  %27 = load ptr, ptr %10, align 8, !tbaa !36
  %28 = getelementptr inbounds nuw %struct.dirent, ptr %27, i32 0, i32 4
  %29 = getelementptr inbounds [256 x i8], ptr %28, i64 0, i64 0
  %30 = call i32 (ptr, i64, ptr, ...) @snprintf(ptr noundef %25, i64 noundef 512, ptr noundef @.str.2, ptr noundef %26, ptr noundef %29) #10
  store i32 %30, ptr %8, align 4, !tbaa !12
  %31 = load i32, ptr %8, align 4, !tbaa !12
  %32 = icmp slt i32 %31, 0
  br i1 %32, label %37, label %33

33:                                               ; preds = %24
  %34 = load i32, ptr %8, align 4, !tbaa !12
  %35 = sext i32 %34 to i64
  %36 = icmp uge i64 %35, 512
  br i1 %36, label %37, label %38

37:                                               ; preds = %33, %24
  store i32 -10624, ptr %6, align 4, !tbaa !12
  br label %70

38:                                               ; preds = %33
  %39 = getelementptr inbounds [512 x i8], ptr %11, i64 0, i64 0
  %40 = call i32 @stat(ptr noundef %39, ptr noundef %9) #10
  %41 = icmp eq i32 %40, -1
  br i1 %41, label %42, label %48

42:                                               ; preds = %38
  %43 = call ptr @__errno_location() #13
  %44 = load i32, ptr %43, align 4, !tbaa !12
  %45 = icmp eq i32 %44, 2
  br i1 %45, label %46, label %47

46:                                               ; preds = %42
  br label %20, !llvm.loop !38

47:                                               ; preds = %42
  store i32 -10496, ptr %6, align 4, !tbaa !12
  br label %70

48:                                               ; preds = %38
  br label %49

49:                                               ; preds = %48
  %50 = getelementptr inbounds nuw %struct.stat, ptr %9, i32 0, i32 3
  %51 = load i32, ptr %50, align 8, !tbaa !39
  %52 = and i32 %51, 61440
  %53 = icmp eq i32 %52, 32768
  br i1 %53, label %55, label %54

54:                                               ; preds = %49
  br label %20, !llvm.loop !38

55:                                               ; preds = %49
  %56 = load ptr, ptr %4, align 8, !tbaa !3
  %57 = getelementptr inbounds [512 x i8], ptr %11, i64 0, i64 0
  %58 = call i32 @mbedtls_x509_crt_parse_file(ptr noundef %56, ptr noundef %57)
  store i32 %58, ptr %7, align 4, !tbaa !12
  %59 = load i32, ptr %7, align 4, !tbaa !12
  %60 = icmp slt i32 %59, 0
  br i1 %60, label %61, label %64

61:                                               ; preds = %55
  %62 = load i32, ptr %6, align 4, !tbaa !12
  %63 = add nsw i32 %62, 1
  store i32 %63, ptr %6, align 4, !tbaa !12
  br label %68

64:                                               ; preds = %55
  %65 = load i32, ptr %7, align 4, !tbaa !12
  %66 = load i32, ptr %6, align 4, !tbaa !12
  %67 = add nsw i32 %66, %65
  store i32 %67, ptr %6, align 4, !tbaa !12
  br label %68

68:                                               ; preds = %64, %61
  br label %20, !llvm.loop !38

69:                                               ; preds = %20
  br label %70

70:                                               ; preds = %69, %47, %37
  %71 = load ptr, ptr %12, align 8, !tbaa !34
  %72 = call i32 @closedir(ptr noundef %71)
  %73 = load i32, ptr %6, align 4, !tbaa !12
  store i32 %73, ptr %3, align 4
  store i32 1, ptr %13, align 4
  br label %74

74:                                               ; preds = %70, %18
  call void @llvm.lifetime.end.p0(i64 8, ptr %12) #10
  call void @llvm.lifetime.end.p0(i64 512, ptr %11) #10
  call void @llvm.lifetime.end.p0(i64 8, ptr %10) #10
  call void @llvm.lifetime.end.p0(i64 144, ptr %9) #10
  call void @llvm.lifetime.end.p0(i64 4, ptr %8) #10
  call void @llvm.lifetime.end.p0(i64 4, ptr %7) #10
  call void @llvm.lifetime.end.p0(i64 4, ptr %6) #10
  %75 = load i32, ptr %3, align 4
  ret i32 %75
}