; Function Attrs: nounwind uwtable
define hidden range(i32 -10624, -2147483648) i32 @mbedtls_x509_crt_parse_path(ptr noundef %0, ptr noundef %1) local_unnamed_addr #0 {
  %3 = alloca i64, align 8
  %4 = alloca ptr, align 8
  %5 = alloca %struct.stat, align 8
  %6 = alloca [512 x i8], align 16
  call void @llvm.lifetime.start.p0(i64 144, ptr nonnull %5) #17
  call void @llvm.lifetime.start.p0(i64 512, ptr nonnull %6) #17
  %7 = tail call ptr @opendir(ptr noundef %1)
  %8 = icmp eq ptr %7, null
  br i1 %8, label %41, label %9

9:                                                ; preds = %2
  call void @llvm.memset.p0.i64(ptr noundef nonnull align 8 dereferenceable(144) %5, i8 0, i64 144, i1 false)
  %10 = tail call ptr @readdir(ptr noundef nonnull %7) #17
  %.not2026 = icmp eq ptr %10, null
  br i1 %.not2026, label %.outer._crit_edge, label %.lr.ph.lr.ph

.lr.ph.lr.ph:                                     ; preds = %9
  %11 = getelementptr inbounds nuw i8, ptr %5, i64 24
  br label %.lr.ph

.lr.ph:                                           ; preds = %.lr.ph.lr.ph, %mbedtls_x509_crt_parse_file.exit
  %12 = phi ptr [ %10, %.lr.ph.lr.ph ], [ %39, %mbedtls_x509_crt_parse_file.exit ]
  %.016.ph27 = phi i32 [ 0, %.lr.ph.lr.ph ], [ %.2, %mbedtls_x509_crt_parse_file.exit ]
  br label %13

13:                                               ; preds = %.lr.ph, %.backedge
  %14 = phi ptr [ %12, %.lr.ph ], [ %25, %.backedge ]
  %15 = getelementptr inbounds nuw i8, ptr %14, i64 19
  %16 = call i32 (ptr, i64, ptr, ...) @snprintf(ptr noundef nonnull dereferenceable(1) %6, i64 noundef 512, ptr noundef nonnull @.str.2, ptr noundef %1, ptr noundef nonnull %15) #17
  %17 = icmp ugt i32 %16, 511
  br i1 %17, label %.outer._crit_edge, label %18

18:                                               ; preds = %13
  %19 = call i32 @stat(ptr noundef nonnull %6, ptr noundef nonnull %5) #17
  %20 = icmp eq i32 %19, -1
  br i1 %20, label %21, label %26

21:                                               ; preds = %18
  %22 = tail call ptr @__errno_location() #19
  %23 = load i32, ptr %22, align 4, !tbaa !31
  %24 = icmp eq i32 %23, 2
  br i1 %24, label %.backedge, label %.outer._crit_edge

.backedge:                                        ; preds = %21, %26
  %25 = call ptr @readdir(ptr noundef nonnull %7) #17
  %.not = icmp eq ptr %25, null
  br i1 %.not, label %.outer._crit_edge, label %13, !llvm.loop !48

26:                                               ; preds = %18
  %27 = load i32, ptr %11, align 8, !tbaa !49
  %28 = and i32 %27, 61440
  %29 = icmp eq i32 %28, 32768
  br i1 %29, label %30, label %.backedge

30:                                               ; preds = %26
  call void @llvm.lifetime.start.p0(i64 8, ptr nonnull %3) #17
  call void @llvm.lifetime.start.p0(i64 8, ptr nonnull %4) #17
  %31 = call i32 @mbedtls_pk_load_file(ptr noundef nonnull %6, ptr noundef nonnull %4, ptr noundef nonnull %3) #17
  %.not.i = icmp eq i32 %31, 0
  br i1 %.not.i, label %32, label %mbedtls_x509_crt_parse_file.exit

32:                                               ; preds = %30
  %33 = load ptr, ptr %4, align 8, !tbaa !24
  %34 = load i64, ptr %3, align 8, !tbaa !25
  %35 = call i32 @mbedtls_x509_crt_parse(ptr noundef %0, ptr noundef %33, i64 noundef %34)
  %36 = load ptr, ptr %4, align 8, !tbaa !24
  %37 = load i64, ptr %3, align 8, !tbaa !25
  call void @mbedtls_zeroize_and_free(ptr noundef %36, i64 noundef %37) #17
  br label %mbedtls_x509_crt_parse_file.exit

mbedtls_x509_crt_parse_file.exit:                 ; preds = %30, %32
  %.0.i = phi i32 [ %35, %32 ], [ %31, %30 ]
  call void @llvm.lifetime.end.p0(i64 8, ptr nonnull %4) #17
  call void @llvm.lifetime.end.p0(i64 8, ptr nonnull %3) #17
  %38 = icmp slt i32 %.0.i, 0
  %.2.v = select i1 %38, i32 1, i32 %.0.i
  %.2 = add nuw nsw i32 %.2.v, %.016.ph27
  %39 = call ptr @readdir(ptr noundef nonnull %7) #17
  %.not20 = icmp eq ptr %39, null
  br i1 %.not20, label %.outer._crit_edge, label %.lr.ph, !llvm.loop !48

.outer._crit_edge:                                ; preds = %mbedtls_x509_crt_parse_file.exit, %.backedge, %13, %21, %9
  %.1 = phi i32 [ 0, %9 ], [ -10496, %21 ], [ -10624, %13 ], [ %.016.ph27, %.backedge ], [ %.2, %mbedtls_x509_crt_parse_file.exit ]
  %40 = call i32 @closedir(ptr noundef nonnull %7)
  br label %41

41:                                               ; preds = %2, %.outer._crit_edge
  %.0 = phi i32 [ %.1, %.outer._crit_edge ], [ -10496, %2 ]
  call void @llvm.lifetime.end.p0(i64 512, ptr nonnull %6) #17
  call void @llvm.lifetime.end.p0(i64 144, ptr nonnull %5) #17
  ret i32 %.0
}